target datalayout = "e-m:e-p270:32:32-p271:32:32-p272:64:64-i64:64-i128:128-f80:128-n8:16:32:64-S128"
target triple = "x86_64-pc-linux-gnu"

%"class.icu_77::UObject" = type { ptr }
%"class.icu_77::Calendar" = type <{ %"class.icu_77::UObject", [24 x i32], [24 x i8], i8, [7 x i8], double, ptr, i8, i16, i8, i32, i32, i32, i8, i8, i16, [4 x i8], ptr, ptr }>

; Function Attrs: inlinehint mustprogress nounwind uwtable
define linkonce_odr noundef i32 @_ZNK6icu_778Calendar11internalGetE19UCalendarDateFields(ptr noundef nonnull align 8 dereferenceable(192) %0, i32 noundef %1) #2 comdat align 2 {
  %3 = alloca ptr, align 8
  %4 = alloca i32, align 4
  store ptr %0, ptr %3, align 8, !tbaa !37
  store i32 %1, ptr %4, align 4, !tbaa !106
  %5 = load ptr, ptr %3, align 8
  %6 = getelementptr inbounds nuw %"class.icu_77::Calendar", ptr %5, i32 0, i32 1
  %7 = load i32, ptr %4, align 4, !tbaa !106
  %8 = zext i32 %7 to i64
  %9 = getelementptr inbounds nuw [24 x i32], ptr %6, i64 0, i64 %8
  %10 = load i32, ptr %9, align 4, !tbaa !14
  ret i32 %10
}

; Function Attrs: inlinehint mustprogress nounwind uwtable
define internal noundef signext i8 @_ZL9U_FAILURE10UErrorCode(i32 noundef %0) #2 {
  %2 = alloca i32, align 4
  store i32 %0, ptr %2, align 4, !tbaa !15
  %3 = load i32, ptr %2, align 4, !tbaa !15
  %4 = icmp sgt i32 %3, 0
  %5 = zext i1 %4 to i8
  ret i8 %5
}

; Function Attrs: mustprogress uwtable
define noundef i32 @_ZN6icu_778Calendar11getLocalDOWER10UErrorCode(ptr noundef nonnull align 8 dereferenceable(192) %0, ptr noundef nonnull align 4 dereferenceable(4) %1) #1 align 2 {
  %3 = alloca i32, align 4
  %4 = alloca ptr, align 8
  %5 = alloca ptr, align 8
  %6 = alloca i32, align 4
  %7 = alloca i32, align 4
  store ptr %0, ptr %4, align 8, !tbaa !37
  store ptr %1, ptr %5, align 8, !tbaa !22
  %8 = load ptr, ptr %4, align 8
  %9 = load ptr, ptr %5, align 8, !tbaa !22
  %10 = load i32, ptr %9, align 4, !tbaa !15
  %11 = call noundef signext i8 @_ZL9U_FAILURE10UErrorCode(i32 noundef %10)
  %12 = icmp ne i8 %11, 0
  br i1 %12, label %13, label %14

13:                                               ; preds = %2
  store i32 0, ptr %3, align 4
  br label %50

14:                                               ; preds = %2
  call void @llvm.lifetime.start.p0(i64 4, ptr %6) #16
  store i32 0, ptr %6, align 4, !tbaa !14
  %15 = call noundef i32 @_ZNK6icu_778Calendar13resolveFieldsEPA12_A8_Ki(ptr noundef nonnull align 8 dereferenceable(192) %8, ptr noundef @_ZN6icu_778Calendar14kDOWPrecedenceE)
  switch i32 %15, label %38 [
    i32 7, label %16
    i32 18, label %30
  ]

16:                                               ; preds = %14
  %17 = call noundef i32 @_ZNK6icu_778Calendar11internalGetE19UCalendarDateFields(ptr noundef nonnull align 8 dereferenceable(192) %8, i32 noundef 7)
  store i32 %17, ptr %6, align 4, !tbaa !14
  %18 = load i32, ptr %6, align 4, !tbaa !14
  %19 = getelementptr inbounds nuw %"class.icu_77::Calendar", ptr %8, i32 0, i32 8
  %20 = load i16, ptr %19, align 1
  %21 = lshr i16 %20, 3
  %22 = and i16 %21, 15
  %23 = zext i16 %22 to i32
  %24 = sub nsw i32 0, %23
  %25 = call signext i8 @uprv_add32_overflow_77(i32 noundef %18, i32 noundef %24, ptr noundef %6)
  %26 = icmp ne i8 %25, 0
  br i1 %26, label %27, label %29

27:                                               ; preds = %16
  %28 = load ptr, ptr %5, align 8, !tbaa !22
  store i32 1, ptr %28, align 4, !tbaa !15
  store i32 0, ptr %3, align 4
  store i32 1, ptr %7, align 4
  br label %49

29:                                               ; preds = %16
  br label %39

30:                                               ; preds = %14
  %31 = call noundef i32 @_ZNK6icu_778Calendar11internalGetE19UCalendarDateFields(ptr noundef nonnull align 8 dereferenceable(192) %8, i32 noundef 18)
  store i32 %31, ptr %6, align 4, !tbaa !14
  %32 = load i32, ptr %6, align 4, !tbaa !14
  %33 = call signext i8 @uprv_add32_overflow_77(i32 noundef %32, i32 noundef -1, ptr noundef %6)
  %34 = icmp ne i8 %33, 0
  br i1 %34, label %35, label %37

35:                                               ; preds = %30
  %36 = load ptr, ptr %5, align 8, !tbaa !22
  store i32 1, ptr %36, align 4, !tbaa !15
  store i32 0, ptr %3, align 4
  store i32 1, ptr %7, align 4
  br label %49

37:                                               ; preds = %30
  br label %39

38:                                               ; preds = %14
  br label %39

39:                                               ; preds = %38, %37, %29
  %40 = load i32, ptr %6, align 4, !tbaa !14
  %41 = srem i32 %40, 7
  store i32 %41, ptr %6, align 4, !tbaa !14
  %42 = load i32, ptr %6, align 4, !tbaa !14
  %43 = icmp slt i32 %42, 0
  br i1 %43, label %44, label %47

44:                                               ; preds = %39
  %45 = load i32, ptr %6, align 4, !tbaa !14
  %46 = add nsw i32 %45, 7
  store i32 %46, ptr %6, align 4, !tbaa !14
  br label %47

47:                                               ; preds = %44, %39
  %48 = load i32, ptr %6, align 4, !tbaa !14
  store i32 %48, ptr %3, align 4
  store i32 1, ptr %7, align 4
  br label %49

49:                                               ; preds = %47, %35, %27
  call void @llvm.lifetime.end.p0(i64 4, ptr %6) #16
  br label %50

50:                                               ; preds = %49, %13
  %51 = load i32, ptr %3, align 4
  ret i32 %51
}