; Function Attrs: mustprogress uwtable
define noundef range(i32 -6, 14) i32 @_ZN6icu_778Calendar11getLocalDOWER10UErrorCode(ptr noundef nonnull readonly align 8 captures(none) dereferenceable(192) %0, ptr noundef nonnull align 4 captures(none) dereferenceable(4) %1) local_unnamed_addr #1 align 2 {
  %3 = alloca i32, align 4
  %4 = load i32, ptr %1, align 4, !tbaa !13
  %5 = icmp slt i32 %4, 1
  br i1 %5, label %6, label %30

6:                                                ; preds = %2
  call void @llvm.lifetime.start.p0(i64 4, ptr nonnull %3) #25
  store i32 0, ptr %3, align 4, !tbaa !12
  %7 = tail call noundef i32 @_ZNK6icu_778Calendar13resolveFieldsEPA12_A8_Ki(ptr noundef nonnull align 8 dereferenceable(192) %0, ptr noundef nonnull @_ZN6icu_778Calendar14kDOWPrecedenceE)
  switch i32 %7, label %24 [
    i32 7, label %8
    i32 18, label %19
  ]

8:                                                ; preds = %6
  %9 = getelementptr inbounds nuw i8, ptr %0, i64 36
  %10 = load i32, ptr %9, align 4, !tbaa !12
  store i32 %10, ptr %3, align 4, !tbaa !12
  %11 = getelementptr inbounds nuw i8, ptr %0, i64 153
  %12 = load i16, ptr %11, align 1
  %13 = lshr i16 %12, 3
  %14 = and i16 %13, 15
  %15 = zext nneg i16 %14 to i32
  %16 = sub nsw i32 0, %15
  %17 = call signext i8 @uprv_add32_overflow_77(i32 noundef %10, i32 noundef %16, ptr noundef nonnull %3)
  %.not6 = icmp eq i8 %17, 0
  br i1 %.not6, label %24, label %18

18:                                               ; preds = %8
  store i32 1, ptr %1, align 4, !tbaa !13
  br label %29

19:                                               ; preds = %6
  %20 = getelementptr inbounds nuw i8, ptr %0, i64 80
  %21 = load i32, ptr %20, align 8, !tbaa !12
  store i32 %21, ptr %3, align 4, !tbaa !12
  %22 = call signext i8 @uprv_add32_overflow_77(i32 noundef %21, i32 noundef -1, ptr noundef nonnull %3)
  %.not5 = icmp eq i8 %22, 0
  br i1 %.not5, label %24, label %23

23:                                               ; preds = %19
  store i32 1, ptr %1, align 4, !tbaa !13
  br label %29

24:                                               ; preds = %6, %19, %8
  %25 = load i32, ptr %3, align 4, !tbaa !12
  %26 = srem i32 %25, 7
  %27 = icmp slt i32 %26, 0
  %28 = add nsw i32 %26, 7
  %spec.select = select i1 %27, i32 %28, i32 %26
  br label %29

29:                                               ; preds = %24, %23, %18
  %.1 = phi i32 [ %spec.select, %24 ], [ 0, %23 ], [ 0, %18 ]
  call void @llvm.lifetime.end.p0(i64 4, ptr nonnull %3) #25
  br label %30

30:                                               ; preds = %2, %29
  %.0 = phi i32 [ %.1, %29 ], [ 0, %2 ]
  ret i32 %.0
}